; Function Attrs: null_pointer_is_valid sspstrong uwtable
define internal void @add_xml_attribute_names(ptr noundef %0, ptr noundef %1, ptr noundef readonly captures(none) %2) #4 {
  %4 = alloca %struct.hf_register_info, align 8
  %5 = tail call ptr @wmem_epan_scope()
  %6 = getelementptr inbounds nuw i8, ptr %2, i64 8
  %7 = load ptr, ptr %6, align 8
  %8 = tail call noalias ptr (ptr, ptr, ...) @wmem_strconcat(ptr noundef %5, ptr noundef %7, ptr noundef nonnull @.str.80, ptr noundef %0, ptr noundef null)
  %9 = load ptr, ptr %2, align 8
  call void @llvm.lifetime.start.p0(i64 80, ptr nonnull %4) #14
  store ptr %1, ptr %4, align 8
  %10 = getelementptr inbounds nuw i8, ptr %4, i64 8
  store ptr %0, ptr %10, align 8
  %11 = getelementptr inbounds nuw i8, ptr %4, i64 16
  store ptr %8, ptr %11, align 8
  %12 = getelementptr inbounds nuw i8, ptr %4, i64 24
  store i32 26, ptr %12, align 8
  %13 = getelementptr inbounds nuw i8, ptr %4, i64 28
  %14 = getelementptr inbounds nuw i8, ptr %4, i64 56
  call void @llvm.memset.p0.i64(ptr noundef nonnull align 4 dereferenceable(28) %13, i8 0, i64 28, i1 false)
  store i32 -1, ptr %14, align 8
  %15 = getelementptr inbounds nuw i8, ptr %4, i64 60
  store i32 0, ptr %15, align 4
  %16 = getelementptr inbounds nuw i8, ptr %4, i64 64
  store i32 0, ptr %16, align 8
  %17 = getelementptr inbounds nuw i8, ptr %4, i64 68
  store i32 -1, ptr %17, align 4
  %18 = getelementptr inbounds nuw i8, ptr %4, i64 72
  store ptr null, ptr %18, align 8
  call void @wmem_array_append(ptr noundef %9, ptr noundef nonnull %4, i32 noundef 1)
  call void @llvm.lifetime.end.p0(i64 80, ptr nonnull %4) #14
  ret void
}